; Function Attrs: nounwind uwtable
define ptr @l_Lean_Json_renderString___boxed(ptr noundef %0, ptr noundef %1) local_unnamed_addr #0 {
  %3 = load ptr, ptr @l_Lean_Json_renderString___closed__1, align 8, !tbaa !4
  %4 = tail call ptr @lean_string_append(ptr noundef %1, ptr noundef %3) #3
  %5 = tail call zeroext i8 @l___private_Lean_Data_Json_Printer_0__Lean_Json_needEscape_go(ptr noundef %0, ptr noundef nonnull inttoptr (i64 1 to ptr))
  %6 = icmp eq i8 %5, 0
  br i1 %6, label %7, label %lean_dec.exit.i.i

7:                                                ; preds = %2
  %8 = tail call ptr @lean_string_append(ptr noundef %4, ptr noundef %0) #3
  br label %l_Lean_Json_renderString.exit

lean_dec.exit.i.i:                                ; preds = %2
  %9 = getelementptr i8, ptr %0, i64 8
  %.val.i.i = load i64, ptr %9, align 8, !tbaa !12
  %10 = shl i64 %.val.i.i, 1
  %11 = add i64 %10, -1
  %12 = inttoptr i64 %11 to ptr
  %13 = tail call ptr @l_String_foldlAux___at_Lean_Json_escape___spec__1(ptr noundef %0, ptr noundef nonnull %12, ptr noundef nonnull inttoptr (i64 1 to ptr), ptr noundef %4)
  br label %l_Lean_Json_renderString.exit

l_Lean_Json_renderString.exit:                    ; preds = %7, %lean_dec.exit.i.i
  %.0.i.i = phi ptr [ %8, %7 ], [ %13, %lean_dec.exit.i.i ]
  %14 = tail call ptr @lean_string_append(ptr noundef %.0.i.i, ptr noundef %3) #3
  %15 = ptrtoint ptr %0 to i64
  %16 = and i64 %15, 1
  %.not = icmp eq i64 %16, 0
  br i1 %.not, label %17, label %lean_dec.exit

17:                                               ; preds = %l_Lean_Json_renderString.exit
  %18 = load i32, ptr %0, align 4, !tbaa !8
  %19 = icmp sgt i32 %18, 1
  br i1 %19, label %20, label %22, !prof !11

20:                                               ; preds = %17
  %21 = add nsw i32 %18, -1
  store i32 %21, ptr %0, align 4, !tbaa !8
  br label %lean_dec.exit

22:                                               ; preds = %17
  %.not.i = icmp eq i32 %18, 0
  br i1 %.not.i, label %lean_dec.exit, label %23

23:                                               ; preds = %22
  tail call void @lean_dec_ref_cold(ptr noundef nonnull %0) #3
  br label %lean_dec.exit

lean_dec.exit:                                    ; preds = %23, %22, %20, %l_Lean_Json_renderString.exit
  ret ptr %14
}